target datalayout = "e-m:e-p270:32:32-p271:32:32-p272:64:64-i64:64-i128:128-f80:128-n8:16:32:64-S128"
target triple = "x86_64-pc-linux-gnu"

%"class.std::_Function_base" = type { %"union.std::_Any_data", ptr }
%"union.std::_Any_data" = type { %"union.std::_Nocopy_types" }
%"union.std::_Nocopy_types" = type { { i64, i64 } }
%"class.std::function.7" = type { %"class.std::_Function_base", ptr }
%"class.cmJSONHelperBuilder::Object.12" = type <{ %"class.std::vector.13", i8, [7 x i8], %"class.std::function.7", i8, [7 x i8] }>
%"class.std::vector.13" = type { %"struct.std::_Vector_base.14" }
%"struct.std::_Vector_base.14" = type { %"struct.std::_Vector_base<cmJSONHelperBuilder::Object<cmCMakePresetsGraph::ConfigurePreset>::Member, std::allocator<cmJSONHelperBuilder::Object<cmCMakePresetsGraph::ConfigurePreset>::Member>>::_Vector_impl" }
%"struct.std::_Vector_base<cmJSONHelperBuilder::Object<cmCMakePresetsGraph::ConfigurePreset>::Member, std::allocator<cmJSONHelperBuilder::Object<cmCMakePresetsGraph::ConfigurePreset>::Member>>::_Vector_impl" = type { %"struct.std::_Vector_base<cmJSONHelperBuilder::Object<cmCMakePresetsGraph::ConfigurePreset>::Member, std::allocator<cmJSONHelperBuilder::Object<cmCMakePresetsGraph::ConfigurePreset>::Member>>::_Vector_impl_data" }
%"struct.std::_Vector_base<cmJSONHelperBuilder::Object<cmCMakePresetsGraph::ConfigurePreset>::Member, std::allocator<cmJSONHelperBuilder::Object<cmCMakePresetsGraph::ConfigurePreset>::Member>>::_Vector_impl_data" = type { ptr, ptr, ptr }
%class.anon = type { i64, i64, %"class.cmJSONHelperBuilder::Object.12" }
%"class.std::__cxx11::basic_string" = type { %"struct.std::__cxx11::basic_string<char>::_Alloc_hider", i64, %union.anon }
%"struct.std::__cxx11::basic_string<char>::_Alloc_hider" = type { ptr }
%union.anon = type { i64, [8 x i8] }
%"struct.std::_Optional_base" = type { %"struct.std::_Optional_payload" }
%"struct.std::_Optional_payload" = type { %"struct.std::_Optional_payload_base.base", [3 x i8] }
%"struct.std::_Optional_payload_base.base" = type <{ %"union.std::_Optional_payload_base<cmCMakePresetsGraph::ArchToolsetStrategy>::_Storage", i8 }>
%"union.std::_Optional_payload_base<cmCMakePresetsGraph::ArchToolsetStrategy>::_Storage" = type { i32 }
%"struct.std::_Optional_payload_base" = type <{ %"union.std::_Optional_payload_base<cmCMakePresetsGraph::ArchToolsetStrategy>::_Storage", i8, [3 x i8] }>

; Function Attrs: mustprogress nounwind uwtable
define linkonce_odr dso_local void @_ZNSt22_Optional_payload_baseIN19cmCMakePresetsGraph19ArchToolsetStrategyEE10_M_destroyEv(ptr noundef nonnull align 4 dereferenceable(5) %0) #5 comdat align 2 {
  %2 = alloca ptr, align 8
  store ptr %0, ptr %2, align 8
  %3 = load ptr, ptr %2, align 8
  %4 = getelementptr inbounds %"struct.std::_Optional_payload_base", ptr %3, i32 0, i32 1
  store i8 0, ptr %4, align 4
  ret void
}

; Function Attrs: mustprogress nounwind uwtable
define linkonce_odr dso_local void @_ZNSt22_Optional_payload_baseIN19cmCMakePresetsGraph19ArchToolsetStrategyEE8_M_resetEv(ptr noundef nonnull align 4 dereferenceable(5) %0) #5 comdat align 2 {
  %2 = alloca ptr, align 8
  store ptr %0, ptr %2, align 8
  %3 = load ptr, ptr %2, align 8
  %4 = getelementptr inbounds %"struct.std::_Optional_payload_base", ptr %3, i32 0, i32 1
  %5 = load i8, ptr %4, align 4
  %6 = trunc i8 %5 to i1
  br i1 %6, label %7, label %8

7:                                                ; preds = %1
  call void @_ZNSt22_Optional_payload_baseIN19cmCMakePresetsGraph19ArchToolsetStrategyEE10_M_destroyEv(ptr noundef nonnull align 4 dereferenceable(5) %3) #3
  br label %8

8:                                                ; preds = %7, %1
  ret void
}

; Function Attrs: mustprogress nounwind uwtable
define linkonce_odr dso_local void @_ZNSt19_Optional_base_implIN19cmCMakePresetsGraph19ArchToolsetStrategyESt14_Optional_baseIS1_Lb1ELb1EEE8_M_resetEv(ptr noundef nonnull align 1 dereferenceable(1) %0) #5 comdat align 2 {
  %2 = alloca ptr, align 8
  store ptr %0, ptr %2, align 8
  %3 = load ptr, ptr %2, align 8
  %4 = getelementptr inbounds %"struct.std::_Optional_base", ptr %3, i32 0, i32 0
  call void @_ZNSt22_Optional_payload_baseIN19cmCMakePresetsGraph19ArchToolsetStrategyEE8_M_resetEv(ptr noundef nonnull align 4 dereferenceable(5) %4) #3
  ret void
}

; Function Attrs: mustprogress nounwind uwtable
define linkonce_odr dso_local noundef nonnull align 4 dereferenceable(8) ptr @_ZNSt8optionalIN19cmCMakePresetsGraph19ArchToolsetStrategyEEaSESt9nullopt_t(ptr noundef nonnull align 4 dereferenceable(8) %0) #5 comdat align 2 {
  %2 = alloca ptr, align 8
  store ptr %0, ptr %2, align 8
  %3 = load ptr, ptr %2, align 8
  call void @_ZNSt19_Optional_base_implIN19cmCMakePresetsGraph19ArchToolsetStrategyESt14_Optional_baseIS1_Lb1ELb1EEE8_M_resetEv(ptr noundef nonnull align 1 dereferenceable(1) %3) #3
  ret ptr %3
}

; Function Attrs: mustprogress uwtable
define internal noundef zeroext i1 @"_ZZN12_GLOBAL__N_117ArchToolsetHelperEMN19cmCMakePresetsGraph15ConfigurePresetENSt7__cxx1112basic_stringIcSt11char_traitsIcESaIcEEEMS1_St8optionalINS0_19ArchToolsetStrategyEEENK3$_0clERS1_PKN4Json5ValueEP11cmJSONState"(ptr noundef nonnull align 8 dereferenceable(88) %0, ptr noundef nonnull align 8 dereferenceable(568) %1, ptr noundef %2, ptr noundef %3) #4 align 2 {
  %5 = alloca i1, align 1
  %6 = alloca ptr, align 8
  %7 = alloca ptr, align 8
  %8 = alloca ptr, align 8
  %9 = alloca ptr, align 8
  %10 = alloca %"class.std::__cxx11::basic_string", align 8
  store ptr %0, ptr %6, align 8
  store ptr %1, ptr %7, align 8
  store ptr %2, ptr %8, align 8
  store ptr %3, ptr %9, align 8
  %11 = load ptr, ptr %6, align 8
  %12 = load ptr, ptr %8, align 8
  %13 = icmp ne ptr %12, null
  br i1 %13, label %24, label %14

14:                                               ; preds = %4
  %15 = load ptr, ptr %7, align 8
  %16 = getelementptr inbounds %class.anon, ptr %11, i32 0, i32 0
  %17 = load i64, ptr %16, align 8
  %18 = getelementptr inbounds i8, ptr %15, i64 %17
  call void @_ZNSt7__cxx1112basic_stringIcSt11char_traitsIcESaIcEE5clearEv(ptr noundef nonnull align 8 dereferenceable(32) %18) #3
  %19 = load ptr, ptr %7, align 8
  %20 = getelementptr inbounds %class.anon, ptr %11, i32 0, i32 1
  %21 = load i64, ptr %20, align 8
  %22 = getelementptr inbounds i8, ptr %19, i64 %21
  %23 = call noundef nonnull align 4 dereferenceable(8) ptr @_ZNSt8optionalIN19cmCMakePresetsGraph19ArchToolsetStrategyEEaSESt9nullopt_t(ptr noundef nonnull align 4 dereferenceable(8) %22) #3
  store i1 true, ptr %5, align 1
  br label %51

24:                                               ; preds = %4
  %25 = load ptr, ptr %8, align 8
  %26 = call noundef zeroext i1 @_ZNK4Json5Value8isStringEv(ptr noundef nonnull align 8 dereferenceable(40) %25)
  br i1 %26, label %27, label %39

27:                                               ; preds = %24
  %28 = load ptr, ptr %8, align 8
  call void @_ZNK4Json5Value8asStringB5cxx11Ev(ptr dead_on_unwind writable sret(%"class.std::__cxx11::basic_string") align 8 %10, ptr noundef nonnull align 8 dereferenceable(40) %28)
  %29 = load ptr, ptr %7, align 8
  %30 = getelementptr inbounds %class.anon, ptr %11, i32 0, i32 0
  %31 = load i64, ptr %30, align 8
  %32 = getelementptr inbounds i8, ptr %29, i64 %31
  %33 = call noundef nonnull align 8 dereferenceable(32) ptr @_ZNSt7__cxx1112basic_stringIcSt11char_traitsIcESaIcEEaSEOS4_(ptr noundef nonnull align 8 dereferenceable(32) %32, ptr noundef nonnull align 8 dereferenceable(32) %10) #3
  call void @_ZNSt7__cxx1112basic_stringIcSt11char_traitsIcESaIcEED1Ev(ptr noundef nonnull align 8 dereferenceable(32) %10) #3
  %34 = load ptr, ptr %7, align 8
  %35 = getelementptr inbounds %class.anon, ptr %11, i32 0, i32 1
  %36 = load i64, ptr %35, align 8
  %37 = getelementptr inbounds i8, ptr %34, i64 %36
  %38 = call noundef nonnull align 4 dereferenceable(8) ptr @_ZNSt8optionalIN19cmCMakePresetsGraph19ArchToolsetStrategyEEaSESt9nullopt_t(ptr noundef nonnull align 4 dereferenceable(8) %37) #3
  store i1 true, ptr %5, align 1
  br label %51

39:                                               ; preds = %24
  %40 = load ptr, ptr %8, align 8
  %41 = call noundef zeroext i1 @_ZNK4Json5Value8isObjectEv(ptr noundef nonnull align 8 dereferenceable(40) %40)
  br i1 %41, label %42, label %48

42:                                               ; preds = %39
  %43 = getelementptr inbounds %class.anon, ptr %11, i32 0, i32 2
  %44 = load ptr, ptr %7, align 8
  %45 = load ptr, ptr %8, align 8
  %46 = load ptr, ptr %9, align 8
  %47 = call noundef zeroext i1 @_ZNK19cmJSONHelperBuilder6ObjectIN19cmCMakePresetsGraph15ConfigurePresetEEclERS2_PKN4Json5ValueEP11cmJSONState(ptr noundef nonnull align 8 dereferenceable(65) %43, ptr noundef nonnull align 8 dereferenceable(568) %44, ptr noundef %45, ptr noundef %46)
  store i1 %47, ptr %5, align 1
  br label %51

48:                                               ; preds = %39
  %49 = load ptr, ptr %8, align 8
  %50 = load ptr, ptr %9, align 8
  call void @_ZN20cmCMakePresetsErrors14INVALID_PRESETEPKN4Json5ValueEP11cmJSONState(ptr noundef %49, ptr noundef %50)
  store i1 false, ptr %5, align 1
  br label %51

51:                                               ; preds = %48, %42, %27, %14
  %52 = load i1, ptr %5, align 1
  ret i1 %52
}

; Function Attrs: mustprogress nounwind uwtable
define linkonce_odr dso_local noundef ptr @_ZNKSt9_Any_data9_M_accessEv(ptr noundef nonnull align 8 dereferenceable(16) %0) #5 comdat align 2 {
  %2 = alloca ptr, align 8
  store ptr %0, ptr %2, align 8
  %3 = load ptr, ptr %2, align 8
  %4 = getelementptr inbounds [16 x i8], ptr %3, i64 0, i64 0
  ret ptr %4
}

; Function Attrs: mustprogress uwtable
define internal noundef zeroext i1 @"_ZSt13__invoke_implIbRZN12_GLOBAL__N_117ArchToolsetHelperEMN19cmCMakePresetsGraph15ConfigurePresetENSt7__cxx1112basic_stringIcSt11char_traitsIcESaIcEEEMS2_St8optionalINS1_19ArchToolsetStrategyEEE3$_0JRS2_PKN4Json5ValueEP11cmJSONStateEET_St14__invoke_otherOT0_DpOT1_"(ptr noundef nonnull align 8 dereferenceable(88) %0, ptr noundef nonnull align 8 dereferenceable(568) %1, ptr noundef nonnull align 8 dereferenceable(8) %2, ptr noundef nonnull align 8 dereferenceable(8) %3) #4 {
  %5 = alloca ptr, align 8
  %6 = alloca ptr, align 8
  %7 = alloca ptr, align 8
  %8 = alloca ptr, align 8
  store ptr %0, ptr %5, align 8
  store ptr %1, ptr %6, align 8
  store ptr %2, ptr %7, align 8
  store ptr %3, ptr %8, align 8
  %9 = load ptr, ptr %5, align 8
  %10 = load ptr, ptr %6, align 8
  %11 = load ptr, ptr %7, align 8
  %12 = load ptr, ptr %11, align 8
  %13 = load ptr, ptr %8, align 8
  %14 = load ptr, ptr %13, align 8
  %15 = call noundef zeroext i1 @"_ZZN12_GLOBAL__N_117ArchToolsetHelperEMN19cmCMakePresetsGraph15ConfigurePresetENSt7__cxx1112basic_stringIcSt11char_traitsIcESaIcEEEMS1_St8optionalINS0_19ArchToolsetStrategyEEENK3$_0clERS1_PKN4Json5ValueEP11cmJSONState"(ptr noundef nonnull align 8 dereferenceable(88) %9, ptr noundef nonnull align 8 dereferenceable(568) %10, ptr noundef %12, ptr noundef %14)
  ret i1 %15
}

; Function Attrs: mustprogress nounwind uwtable
define internal noundef nonnull align 8 dereferenceable(8) ptr @"_ZNKSt9_Any_data9_M_accessIPZN12_GLOBAL__N_117ArchToolsetHelperEMN19cmCMakePresetsGraph15ConfigurePresetENSt7__cxx1112basic_stringIcSt11char_traitsIcESaIcEEEMS3_St8optionalINS2_19ArchToolsetStrategyEEE3$_0EERKT_v"(ptr noundef nonnull align 8 dereferenceable(16) %0) #5 align 2 {
  %2 = alloca ptr, align 8
  store ptr %0, ptr %2, align 8
  %3 = load ptr, ptr %2, align 8
  %4 = call noundef ptr @_ZNKSt9_Any_data9_M_accessEv(ptr noundef nonnull align 8 dereferenceable(16) %3) #3
  ret ptr %4
}

; Function Attrs: mustprogress uwtable
define internal noundef zeroext i1 @"_ZSt10__invoke_rIbRZN12_GLOBAL__N_117ArchToolsetHelperEMN19cmCMakePresetsGraph15ConfigurePresetENSt7__cxx1112basic_stringIcSt11char_traitsIcESaIcEEEMS2_St8optionalINS1_19ArchToolsetStrategyEEE3$_0JRS2_PKN4Json5ValueEP11cmJSONStateEENSt9enable_ifIX16is_invocable_r_vIT_T0_DpT1_EESO_E4typeEOSP_DpOSQ_"(ptr noundef nonnull align 8 dereferenceable(88) %0, ptr noundef nonnull align 8 dereferenceable(568) %1, ptr noundef nonnull align 8 dereferenceable(8) %2, ptr noundef nonnull align 8 dereferenceable(8) %3) #4 {
  %5 = alloca ptr, align 8
  %6 = alloca ptr, align 8
  %7 = alloca ptr, align 8
  %8 = alloca ptr, align 8
  store ptr %0, ptr %5, align 8
  store ptr %1, ptr %6, align 8
  store ptr %2, ptr %7, align 8
  store ptr %3, ptr %8, align 8
  %9 = load ptr, ptr %5, align 8
  %10 = load ptr, ptr %6, align 8
  %11 = load ptr, ptr %7, align 8
  %12 = load ptr, ptr %8, align 8
  %13 = call noundef zeroext i1 @"_ZSt13__invoke_implIbRZN12_GLOBAL__N_117ArchToolsetHelperEMN19cmCMakePresetsGraph15ConfigurePresetENSt7__cxx1112basic_stringIcSt11char_traitsIcESaIcEEEMS2_St8optionalINS1_19ArchToolsetStrategyEEE3$_0JRS2_PKN4Json5ValueEP11cmJSONStateEET_St14__invoke_otherOT0_DpOT1_"(ptr noundef nonnull align 8 dereferenceable(88) %9, ptr noundef nonnull align 8 dereferenceable(568) %10, ptr noundef nonnull align 8 dereferenceable(8) %11, ptr noundef nonnull align 8 dereferenceable(8) %12)
  ret i1 %13
}

; Function Attrs: mustprogress nounwind uwtable
define internal noundef ptr @"_ZNSt14_Function_base13_Base_managerIZN12_GLOBAL__N_117ArchToolsetHelperEMN19cmCMakePresetsGraph15ConfigurePresetENSt7__cxx1112basic_stringIcSt11char_traitsIcESaIcEEEMS3_St8optionalINS2_19ArchToolsetStrategyEEE3$_0E14_M_get_pointerERKSt9_Any_data"(ptr noundef nonnull align 8 dereferenceable(16) %0) #5 align 2 {
  %2 = alloca ptr, align 8
  store ptr %0, ptr %2, align 8
  %3 = load ptr, ptr %2, align 8
  %4 = call noundef nonnull align 8 dereferenceable(8) ptr @"_ZNKSt9_Any_data9_M_accessIPZN12_GLOBAL__N_117ArchToolsetHelperEMN19cmCMakePresetsGraph15ConfigurePresetENSt7__cxx1112basic_stringIcSt11char_traitsIcESaIcEEEMS3_St8optionalINS2_19ArchToolsetStrategyEEE3$_0EERKT_v"(ptr noundef nonnull align 8 dereferenceable(16) %3) #3
  %5 = load ptr, ptr %4, align 8
  ret ptr %5
}

; Function Attrs: mustprogress uwtable
define internal noundef zeroext i1 @"_ZNSt17_Function_handlerIFbRN19cmCMakePresetsGraph15ConfigurePresetEPKN4Json5ValueEP11cmJSONStateEZN12_GLOBAL__N_117ArchToolsetHelperEMS1_NSt7__cxx1112basic_stringIcSt11char_traitsIcESaIcEEEMS1_St8optionalINS0_19ArchToolsetStrategyEEE3$_0E9_M_invokeERKSt9_Any_dataS2_OS6_OS8_"(ptr noundef nonnull align 8 dereferenceable(16) %0, ptr noundef nonnull align 8 dereferenceable(568) %1, ptr noundef nonnull align 8 dereferenceable(8) %2, ptr noundef nonnull align 8 dereferenceable(8) %3) #4 align 2 {
  %5 = alloca ptr, align 8
  %6 = alloca ptr, align 8
  %7 = alloca ptr, align 8
  %8 = alloca ptr, align 8
  store ptr %0, ptr %5, align 8
  store ptr %1, ptr %6, align 8
  store ptr %2, ptr %7, align 8
  store ptr %3, ptr %8, align 8
  %9 = load ptr, ptr %5, align 8
  %10 = call noundef ptr @"_ZNSt14_Function_base13_Base_managerIZN12_GLOBAL__N_117ArchToolsetHelperEMN19cmCMakePresetsGraph15ConfigurePresetENSt7__cxx1112basic_stringIcSt11char_traitsIcESaIcEEEMS3_St8optionalINS2_19ArchToolsetStrategyEEE3$_0E14_M_get_pointerERKSt9_Any_data"(ptr noundef nonnull align 8 dereferenceable(16) %9) #3
  %11 = load ptr, ptr %6, align 8
  %12 = load ptr, ptr %7, align 8
  %13 = load ptr, ptr %8, align 8
  %14 = call noundef zeroext i1 @"_ZSt10__invoke_rIbRZN12_GLOBAL__N_117ArchToolsetHelperEMN19cmCMakePresetsGraph15ConfigurePresetENSt7__cxx1112basic_stringIcSt11char_traitsIcESaIcEEEMS2_St8optionalINS1_19ArchToolsetStrategyEEE3$_0JRS2_PKN4Json5ValueEP11cmJSONStateEENSt9enable_ifIX16is_invocable_r_vIT_T0_DpT1_EESO_E4typeEOSP_DpOSQ_"(ptr noundef nonnull align 8 dereferenceable(88) %10, ptr noundef nonnull align 8 dereferenceable(568) %11, ptr noundef nonnull align 8 dereferenceable(8) %12, ptr noundef nonnull align 8 dereferenceable(8) %13)
  ret i1 %14
}