; Function Attrs: mustprogress uwtable
define internal noundef zeroext i1 @"_ZNSt17_Function_handlerIFbRN19cmCMakePresetsGraph15ConfigurePresetEPKN4Json5ValueEP11cmJSONStateEZN12_GLOBAL__N_117ArchToolsetHelperEMS1_NSt7__cxx1112basic_stringIcSt11char_traitsIcESaIcEEEMS1_St8optionalINS0_19ArchToolsetStrategyEEE3$_0E9_M_invokeERKSt9_Any_dataS2_OS6_OS8_"(ptr nocapture noundef nonnull readonly align 8 dereferenceable(16) %0, ptr noundef nonnull align 8 dereferenceable(568) %1, ptr nocapture noundef nonnull readonly align 8 dereferenceable(8) %2, ptr nocapture noundef nonnull readonly align 8 dereferenceable(8) %3) #3 align 2 {
  %5 = alloca %"class.std::__cxx11::basic_string", align 8
  %.val = load ptr, ptr %0, align 8
  %.val4 = load ptr, ptr %2, align 8
  %.val5 = load ptr, ptr %3, align 8
  call void @llvm.lifetime.start.p0(i64 32, ptr nonnull %5)
  %.not.i.i.i = icmp eq ptr %.val4, null
  br i1 %.not.i.i.i, label %6, label %16

6:                                                ; preds = %4
  %7 = load i64, ptr %.val, align 8
  %8 = getelementptr inbounds i8, ptr %1, i64 %7
  tail call void @_ZNSt7__cxx1112basic_stringIcSt11char_traitsIcESaIcEE5clearEv(ptr noundef nonnull align 8 dereferenceable(32) %8) #21
  %9 = getelementptr inbounds i8, ptr %.val, i64 8
  %10 = load i64, ptr %9, align 8
  %11 = getelementptr inbounds i8, ptr %1, i64 %10
  %12 = getelementptr inbounds i8, ptr %11, i64 4
  %13 = load i8, ptr %12, align 4
  %14 = and i8 %13, 1
  %.not.i.i.i.i.i.i = icmp eq i8 %14, 0
  br i1 %.not.i.i.i.i.i.i, label %"_ZSt10__invoke_rIbRZN12_GLOBAL__N_117ArchToolsetHelperEMN19cmCMakePresetsGraph15ConfigurePresetENSt7__cxx1112basic_stringIcSt11char_traitsIcESaIcEEEMS2_St8optionalINS1_19ArchToolsetStrategyEEE3$_0JRS2_PKN4Json5ValueEP11cmJSONStateEENSt9enable_ifIX16is_invocable_r_vIT_T0_DpT1_EESO_E4typeEOSP_DpOSQ_.exit", label %15

15:                                               ; preds = %6
  store i8 0, ptr %12, align 4
  br label %"_ZSt10__invoke_rIbRZN12_GLOBAL__N_117ArchToolsetHelperEMN19cmCMakePresetsGraph15ConfigurePresetENSt7__cxx1112basic_stringIcSt11char_traitsIcESaIcEEEMS2_St8optionalINS1_19ArchToolsetStrategyEEE3$_0JRS2_PKN4Json5ValueEP11cmJSONStateEENSt9enable_ifIX16is_invocable_r_vIT_T0_DpT1_EESO_E4typeEOSP_DpOSQ_.exit"

16:                                               ; preds = %4
  %17 = tail call noundef zeroext i1 @_ZNK4Json5Value8isStringEv(ptr noundef nonnull align 8 dereferenceable(40) %.val4)
  br i1 %17, label %18, label %29

18:                                               ; preds = %16
  call void @_ZNK4Json5Value8asStringB5cxx11Ev(ptr dead_on_unwind nonnull writable sret(%"class.std::__cxx11::basic_string") align 8 %5, ptr noundef nonnull align 8 dereferenceable(40) %.val4)
  %19 = load i64, ptr %.val, align 8
  %20 = getelementptr inbounds i8, ptr %1, i64 %19
  %21 = call noundef nonnull align 8 dereferenceable(32) ptr @_ZNSt7__cxx1112basic_stringIcSt11char_traitsIcESaIcEEaSEOS4_(ptr noundef nonnull align 8 dereferenceable(32) %20, ptr noundef nonnull align 8 dereferenceable(32) %5) #21
  call void @_ZNSt7__cxx1112basic_stringIcSt11char_traitsIcESaIcEED1Ev(ptr noundef nonnull align 8 dereferenceable(32) %5) #21
  %22 = getelementptr inbounds i8, ptr %.val, i64 8
  %23 = load i64, ptr %22, align 8
  %24 = getelementptr inbounds i8, ptr %1, i64 %23
  %25 = getelementptr inbounds i8, ptr %24, i64 4
  %26 = load i8, ptr %25, align 4
  %27 = and i8 %26, 1
  %.not.i.i.i16.i.i.i = icmp eq i8 %27, 0
  br i1 %.not.i.i.i16.i.i.i, label %"_ZSt10__invoke_rIbRZN12_GLOBAL__N_117ArchToolsetHelperEMN19cmCMakePresetsGraph15ConfigurePresetENSt7__cxx1112basic_stringIcSt11char_traitsIcESaIcEEEMS2_St8optionalINS1_19ArchToolsetStrategyEEE3$_0JRS2_PKN4Json5ValueEP11cmJSONStateEENSt9enable_ifIX16is_invocable_r_vIT_T0_DpT1_EESO_E4typeEOSP_DpOSQ_.exit", label %28

28:                                               ; preds = %18
  store i8 0, ptr %25, align 4
  br label %"_ZSt10__invoke_rIbRZN12_GLOBAL__N_117ArchToolsetHelperEMN19cmCMakePresetsGraph15ConfigurePresetENSt7__cxx1112basic_stringIcSt11char_traitsIcESaIcEEEMS2_St8optionalINS1_19ArchToolsetStrategyEEE3$_0JRS2_PKN4Json5ValueEP11cmJSONStateEENSt9enable_ifIX16is_invocable_r_vIT_T0_DpT1_EESO_E4typeEOSP_DpOSQ_.exit"

29:                                               ; preds = %16
  %30 = tail call noundef zeroext i1 @_ZNK4Json5Value8isObjectEv(ptr noundef nonnull align 8 dereferenceable(40) %.val4)
  br i1 %30, label %31, label %34

31:                                               ; preds = %29
  %32 = getelementptr inbounds i8, ptr %.val, i64 16
  %33 = tail call noundef zeroext i1 @_ZNK19cmJSONHelperBuilder6ObjectIN19cmCMakePresetsGraph15ConfigurePresetEEclERS2_PKN4Json5ValueEP11cmJSONState(ptr noundef nonnull align 8 dereferenceable(65) %32, ptr noundef nonnull align 8 dereferenceable(568) %1, ptr noundef nonnull %.val4, ptr noundef %.val5)
  br label %"_ZSt10__invoke_rIbRZN12_GLOBAL__N_117ArchToolsetHelperEMN19cmCMakePresetsGraph15ConfigurePresetENSt7__cxx1112basic_stringIcSt11char_traitsIcESaIcEEEMS2_St8optionalINS1_19ArchToolsetStrategyEEE3$_0JRS2_PKN4Json5ValueEP11cmJSONStateEENSt9enable_ifIX16is_invocable_r_vIT_T0_DpT1_EESO_E4typeEOSP_DpOSQ_.exit"

34:                                               ; preds = %29
  tail call void @_ZN20cmCMakePresetsErrors14INVALID_PRESETEPKN4Json5ValueEP11cmJSONState(ptr noundef nonnull %.val4, ptr noundef %.val5)
  br label %"_ZSt10__invoke_rIbRZN12_GLOBAL__N_117ArchToolsetHelperEMN19cmCMakePresetsGraph15ConfigurePresetENSt7__cxx1112basic_stringIcSt11char_traitsIcESaIcEEEMS2_St8optionalINS1_19ArchToolsetStrategyEEE3$_0JRS2_PKN4Json5ValueEP11cmJSONStateEENSt9enable_ifIX16is_invocable_r_vIT_T0_DpT1_EESO_E4typeEOSP_DpOSQ_.exit"

"_ZSt10__invoke_rIbRZN12_GLOBAL__N_117ArchToolsetHelperEMN19cmCMakePresetsGraph15ConfigurePresetENSt7__cxx1112basic_stringIcSt11char_traitsIcESaIcEEEMS2_St8optionalINS1_19ArchToolsetStrategyEEE3$_0JRS2_PKN4Json5ValueEP11cmJSONStateEENSt9enable_ifIX16is_invocable_r_vIT_T0_DpT1_EESO_E4typeEOSP_DpOSQ_.exit": ; preds = %6, %15, %18, %28, %31, %34
  %.0.i.i.i = phi i1 [ %33, %31 ], [ false, %34 ], [ true, %6 ], [ true, %15 ], [ true, %18 ], [ true, %28 ]
  call void @llvm.lifetime.end.p0(i64 32, ptr nonnull %5)
  ret i1 %.0.i.i.i
}